target datalayout = "e-m:e-p270:32:32-p271:32:32-p272:64:64-i64:64-i128:128-f80:128-n8:16:32:64-S128"
target triple = "x86_64-pc-linux-gnu"

%struct.FunctionCallInfoBaseData = type { ptr, ptr, ptr, i32, i8, i16, [0 x %struct.NullableDatum] }
%struct.NullableDatum = type { i64, i8 }
%struct.varattrib_1b = type { i8, [0 x i8] }
%struct.anon = type { i32, [0 x i8] }
%struct.inet_struct = type { i8, i8, [16 x i8] }

@.str.1 = private unnamed_addr constant [10 x i8] c"network.c\00", align 1
@.str.9 = private unnamed_addr constant [47 x i8] c"cannot subtract inet values of different sizes\00", align 1
@__func__.inetmi = private unnamed_addr constant [7 x i8] c"inetmi\00", align 1
@.str.10 = private unnamed_addr constant [23 x i8] c"result is out of range\00", align 1

; Function Attrs: inlinehint nounwind uwtable
define internal ptr @DatumGetPointer(i64 noundef %0) #2 {
  %2 = alloca i64, align 8
  store i64 %0, ptr %2, align 8
  %3 = load i64, ptr %2, align 8
  %4 = inttoptr i64 %3 to ptr
  ret ptr %4
}

; Function Attrs: inlinehint nounwind uwtable
define internal i64 @Int64GetDatum(i64 noundef %0) #2 {
  %2 = alloca i64, align 8
  store i64 %0, ptr %2, align 8
  %3 = load i64, ptr %2, align 8
  ret i64 %3
}

; Function Attrs: inlinehint nounwind uwtable
define internal ptr @DatumGetInetPP(i64 noundef %0) #2 {
  %2 = alloca i64, align 8
  store i64 %0, ptr %2, align 8
  %3 = load i64, ptr %2, align 8
  %4 = call ptr @DatumGetPointer(i64 noundef %3)
  %5 = call ptr @pg_detoast_datum_packed(ptr noundef %4)
  ret ptr %5
}

; Function Attrs: nounwind uwtable
define dso_local i64 @inetmi(ptr noundef %0) #0 {
  %2 = alloca ptr, align 8
  %3 = alloca ptr, align 8
  %4 = alloca ptr, align 8
  %5 = alloca i64, align 8
  %6 = alloca i32, align 4
  %7 = alloca i32, align 4
  %8 = alloca ptr, align 8
  %9 = alloca ptr, align 8
  %10 = alloca i32, align 4
  %11 = alloca i32, align 4
  store ptr %0, ptr %2, align 8
  call void @llvm.lifetime.start.p0(i64 8, ptr %3) #8
  %12 = load ptr, ptr %2, align 8
  %13 = getelementptr inbounds nuw %struct.FunctionCallInfoBaseData, ptr %12, i32 0, i32 6
  %14 = getelementptr inbounds [0 x %struct.NullableDatum], ptr %13, i64 0, i64 0
  %15 = getelementptr inbounds nuw %struct.NullableDatum, ptr %14, i32 0, i32 0
  %16 = load i64, ptr %15, align 8
  %17 = call ptr @DatumGetInetPP(i64 noundef %16)
  store ptr %17, ptr %3, align 8
  call void @llvm.lifetime.start.p0(i64 8, ptr %4) #8
  %18 = load ptr, ptr %2, align 8
  %19 = getelementptr inbounds nuw %struct.FunctionCallInfoBaseData, ptr %18, i32 0, i32 6
  %20 = getelementptr inbounds [0 x %struct.NullableDatum], ptr %19, i64 0, i64 1
  %21 = getelementptr inbounds nuw %struct.NullableDatum, ptr %20, i32 0, i32 0
  %22 = load i64, ptr %21, align 8
  %23 = call ptr @DatumGetInetPP(i64 noundef %22)
  store ptr %23, ptr %4, align 8
  call void @llvm.lifetime.start.p0(i64 8, ptr %5) #8
  store i64 0, ptr %5, align 8
  %24 = load ptr, ptr %3, align 8
  %25 = getelementptr inbounds nuw %struct.varattrib_1b, ptr %24, i32 0, i32 0
  %26 = load i8, ptr %25, align 1
  %27 = zext i8 %26 to i32
  %28 = and i32 %27, 1
  %29 = icmp eq i32 %28, 1
  br i1 %29, label %30, label %34

30:                                               ; preds = %1
  %31 = load ptr, ptr %3, align 8
  %32 = getelementptr inbounds nuw %struct.varattrib_1b, ptr %31, i32 0, i32 1
  %33 = getelementptr inbounds [0 x i8], ptr %32, i64 0, i64 0
  br label %38

34:                                               ; preds = %1
  %35 = load ptr, ptr %3, align 8
  %36 = getelementptr inbounds nuw %struct.anon, ptr %35, i32 0, i32 1
  %37 = getelementptr inbounds [0 x i8], ptr %36, i64 0, i64 0
  br label %38

38:                                               ; preds = %34, %30
  %39 = phi ptr [ %33, %30 ], [ %37, %34 ]
  %40 = getelementptr inbounds nuw %struct.inet_struct, ptr %39, i32 0, i32 0
  %41 = load i8, ptr %40, align 1
  %42 = zext i8 %41 to i32
  %43 = load ptr, ptr %4, align 8
  %44 = getelementptr inbounds nuw %struct.varattrib_1b, ptr %43, i32 0, i32 0
  %45 = load i8, ptr %44, align 1
  %46 = zext i8 %45 to i32
  %47 = and i32 %46, 1
  %48 = icmp eq i32 %47, 1
  br i1 %48, label %49, label %53

49:                                               ; preds = %38
  %50 = load ptr, ptr %4, align 8
  %51 = getelementptr inbounds nuw %struct.varattrib_1b, ptr %50, i32 0, i32 1
  %52 = getelementptr inbounds [0 x i8], ptr %51, i64 0, i64 0
  br label %57

53:                                               ; preds = %38
  %54 = load ptr, ptr %4, align 8
  %55 = getelementptr inbounds nuw %struct.anon, ptr %54, i32 0, i32 1
  %56 = getelementptr inbounds [0 x i8], ptr %55, i64 0, i64 0
  br label %57

57:                                               ; preds = %53, %49
  %58 = phi ptr [ %52, %49 ], [ %56, %53 ]
  %59 = getelementptr inbounds nuw %struct.inet_struct, ptr %58, i32 0, i32 0
  %60 = load i8, ptr %59, align 1
  %61 = zext i8 %60 to i32
  %62 = icmp ne i32 %42, %61
  br i1 %62, label %63, label %75

63:                                               ; preds = %57
  br label %64

64:                                               ; preds = %63
  br i1 true, label %65, label %67

65:                                               ; preds = %64
  %66 = call zeroext i1 @errstart_cold(i32 noundef 21, ptr noundef null) #10
  br i1 %66, label %69, label %72

67:                                               ; preds = %64
  %68 = call zeroext i1 @errstart(i32 noundef 21, ptr noundef null)
  br i1 %68, label %69, label %72

69:                                               ; preds = %67, %65
  %70 = call i32 @errcode(i32 noundef 50856066)
  %71 = call i32 (ptr, ...) @errmsg(ptr noundef @.str.9)
  call void @errfinish(ptr noundef @.str.1, i32 noundef 2021, ptr noundef @__func__.inetmi)
  br label %72

72:                                               ; preds = %69, %67, %65
  unreachable

73:                                               ; No predecessors!
  br label %74

74:                                               ; preds = %73
  br label %211

75:                                               ; preds = %57
  call void @llvm.lifetime.start.p0(i64 4, ptr %6) #8
  %76 = load ptr, ptr %3, align 8
  %77 = getelementptr inbounds nuw %struct.varattrib_1b, ptr %76, i32 0, i32 0
  %78 = load i8, ptr %77, align 1
  %79 = zext i8 %78 to i32
  %80 = and i32 %79, 1
  %81 = icmp eq i32 %80, 1
  br i1 %81, label %82, label %86

82:                                               ; preds = %75
  %83 = load ptr, ptr %3, align 8
  %84 = getelementptr inbounds nuw %struct.varattrib_1b, ptr %83, i32 0, i32 1
  %85 = getelementptr inbounds [0 x i8], ptr %84, i64 0, i64 0
  br label %90

86:                                               ; preds = %75
  %87 = load ptr, ptr %3, align 8
  %88 = getelementptr inbounds nuw %struct.anon, ptr %87, i32 0, i32 1
  %89 = getelementptr inbounds [0 x i8], ptr %88, i64 0, i64 0
  br label %90

90:                                               ; preds = %86, %82
  %91 = phi ptr [ %85, %82 ], [ %89, %86 ]
  %92 = getelementptr inbounds nuw %struct.inet_struct, ptr %91, i32 0, i32 0
  %93 = load i8, ptr %92, align 1
  %94 = zext i8 %93 to i32
  %95 = icmp eq i32 %94, 2
  %96 = select i1 %95, i32 4, i32 16
  store i32 %96, ptr %6, align 4
  call void @llvm.lifetime.start.p0(i64 4, ptr %7) #8
  store i32 0, ptr %7, align 4
  call void @llvm.lifetime.start.p0(i64 8, ptr %8) #8
  %97 = load ptr, ptr %3, align 8
  %98 = getelementptr inbounds nuw %struct.varattrib_1b, ptr %97, i32 0, i32 0
  %99 = load i8, ptr %98, align 1
  %100 = zext i8 %99 to i32
  %101 = and i32 %100, 1
  %102 = icmp eq i32 %101, 1
  br i1 %102, label %103, label %107

103:                                              ; preds = %90
  %104 = load ptr, ptr %3, align 8
  %105 = getelementptr inbounds nuw %struct.varattrib_1b, ptr %104, i32 0, i32 1
  %106 = getelementptr inbounds [0 x i8], ptr %105, i64 0, i64 0
  br label %111

107:                                              ; preds = %90
  %108 = load ptr, ptr %3, align 8
  %109 = getelementptr inbounds nuw %struct.anon, ptr %108, i32 0, i32 1
  %110 = getelementptr inbounds [0 x i8], ptr %109, i64 0, i64 0
  br label %111

111:                                              ; preds = %107, %103
  %112 = phi ptr [ %106, %103 ], [ %110, %107 ]
  %113 = getelementptr inbounds nuw %struct.inet_struct, ptr %112, i32 0, i32 2
  %114 = getelementptr inbounds [16 x i8], ptr %113, i64 0, i64 0
  store ptr %114, ptr %8, align 8
  call void @llvm.lifetime.start.p0(i64 8, ptr %9) #8
  %115 = load ptr, ptr %4, align 8
  %116 = getelementptr inbounds nuw %struct.varattrib_1b, ptr %115, i32 0, i32 0
  %117 = load i8, ptr %116, align 1
  %118 = zext i8 %117 to i32
  %119 = and i32 %118, 1
  %120 = icmp eq i32 %119, 1
  br i1 %120, label %121, label %125

121:                                              ; preds = %111
  %122 = load ptr, ptr %4, align 8
  %123 = getelementptr inbounds nuw %struct.varattrib_1b, ptr %122, i32 0, i32 1
  %124 = getelementptr inbounds [0 x i8], ptr %123, i64 0, i64 0
  br label %129

125:                                              ; preds = %111
  %126 = load ptr, ptr %4, align 8
  %127 = getelementptr inbounds nuw %struct.anon, ptr %126, i32 0, i32 1
  %128 = getelementptr inbounds [0 x i8], ptr %127, i64 0, i64 0
  br label %129

129:                                              ; preds = %125, %121
  %130 = phi ptr [ %124, %121 ], [ %128, %125 ]
  %131 = getelementptr inbounds nuw %struct.inet_struct, ptr %130, i32 0, i32 2
  %132 = getelementptr inbounds [16 x i8], ptr %131, i64 0, i64 0
  store ptr %132, ptr %9, align 8
  call void @llvm.lifetime.start.p0(i64 4, ptr %10) #8
  store i32 1, ptr %10, align 4
  br label %133

133:                                              ; preds = %191, %129
  %134 = load i32, ptr %6, align 4
  %135 = add i32 %134, -1
  store i32 %135, ptr %6, align 4
  %136 = icmp sge i32 %135, 0
  br i1 %136, label %137, label %196

137:                                              ; preds = %133
  call void @llvm.lifetime.start.p0(i64 4, ptr %11) #8
  %138 = load ptr, ptr %8, align 8
  %139 = load i32, ptr %6, align 4
  %140 = sext i32 %139 to i64
  %141 = getelementptr inbounds i8, ptr %138, i64 %140
  %142 = load i8, ptr %141, align 1
  %143 = zext i8 %142 to i32
  %144 = load ptr, ptr %9, align 8
  %145 = load i32, ptr %6, align 4
  %146 = sext i32 %145 to i64
  %147 = getelementptr inbounds i8, ptr %144, i64 %146
  %148 = load i8, ptr %147, align 1
  %149 = zext i8 %148 to i32
  %150 = xor i32 %149, -1
  %151 = and i32 %150, 255
  %152 = add i32 %143, %151
  %153 = load i32, ptr %10, align 4
  %154 = add i32 %152, %153
  store i32 %154, ptr %10, align 4
  %155 = load i32, ptr %10, align 4
  %156 = and i32 %155, 255
  store i32 %156, ptr %11, align 4
  %157 = load i32, ptr %7, align 4
  %158 = sext i32 %157 to i64
  %159 = icmp ult i64 %158, 8
  br i1 %159, label %160, label %169

160:                                              ; preds = %137
  %161 = load i32, ptr %11, align 4
  %162 = sext i32 %161 to i64
  %163 = load i32, ptr %7, align 4
  %164 = mul i32 %163, 8
  %165 = zext i32 %164 to i64
  %166 = shl i64 %162, %165
  %167 = load i64, ptr %5, align 8
  %168 = or i64 %167, %166
  store i64 %168, ptr %5, align 8
  br label %191

169:                                              ; preds = %137
  %170 = load i64, ptr %5, align 8
  %171 = icmp slt i64 %170, 0
  br i1 %171, label %172, label %175

172:                                              ; preds = %169
  %173 = load i32, ptr %11, align 4
  %174 = icmp ne i32 %173, 255
  br i1 %174, label %178, label %190

175:                                              ; preds = %169
  %176 = load i32, ptr %11, align 4
  %177 = icmp ne i32 %176, 0
  br i1 %177, label %178, label %190

178:                                              ; preds = %175, %172
  br label %179

179:                                              ; preds = %178
  br i1 true, label %180, label %182

180:                                              ; preds = %179
  %181 = call zeroext i1 @errstart_cold(i32 noundef 21, ptr noundef null) #10
  br i1 %181, label %184, label %187

182:                                              ; preds = %179
  %183 = call zeroext i1 @errstart(i32 noundef 21, ptr noundef null)
  br i1 %183, label %184, label %187

184:                                              ; preds = %182, %180
  %185 = call i32 @errcode(i32 noundef 50331778)
  %186 = call i32 (ptr, ...) @errmsg(ptr noundef @.str.10)
  call void @errfinish(ptr noundef @.str.1, i32 noundef 2056, ptr noundef @__func__.inetmi)
  br label %187

187:                                              ; preds = %184, %182, %180
  unreachable

188:                                              ; No predecessors!
  br label %189

189:                                              ; preds = %188
  br label %190

190:                                              ; preds = %189, %175, %172
  br label %191

191:                                              ; preds = %190, %160
  %192 = load i32, ptr %10, align 4
  %193 = ashr i32 %192, 8
  store i32 %193, ptr %10, align 4
  %194 = load i32, ptr %7, align 4
  %195 = add i32 %194, 1
  store i32 %195, ptr %7, align 4
  call void @llvm.lifetime.end.p0(i64 4, ptr %11) #8
  br label %133, !llvm.loop !21

196:                                              ; preds = %133
  %197 = load i32, ptr %10, align 4
  %198 = icmp eq i32 %197, 0
  br i1 %198, label %199, label %210

199:                                              ; preds = %196
  %200 = load i32, ptr %7, align 4
  %201 = sext i32 %200 to i64
  %202 = icmp ult i64 %201, 8
  br i1 %202, label %203, label %210

203:                                              ; preds = %199
  %204 = load i32, ptr %7, align 4
  %205 = mul i32 %204, 8
  %206 = zext i32 %205 to i64
  %207 = shl i64 -1, %206
  %208 = load i64, ptr %5, align 8
  %209 = or i64 %208, %207
  store i64 %209, ptr %5, align 8
  br label %210

210:                                              ; preds = %203, %199, %196
  call void @llvm.lifetime.end.p0(i64 4, ptr %10) #8
  call void @llvm.lifetime.end.p0(i64 8, ptr %9) #8
  call void @llvm.lifetime.end.p0(i64 8, ptr %8) #8
  call void @llvm.lifetime.end.p0(i64 4, ptr %7) #8
  call void @llvm.lifetime.end.p0(i64 4, ptr %6) #8
  br label %211

211:                                              ; preds = %210, %74
  %212 = load i64, ptr %5, align 8
  %213 = call i64 @Int64GetDatum(i64 noundef %212)
  call void @llvm.lifetime.end.p0(i64 8, ptr %5) #8
  call void @llvm.lifetime.end.p0(i64 8, ptr %4) #8
  call void @llvm.lifetime.end.p0(i64 8, ptr %3) #8
  ret i64 %213
}