; Function Attrs: nounwind uwtable
define dso_local i64 @inetmi(ptr noundef readonly captures(none) %0) local_unnamed_addr #0 {
  %2 = getelementptr inbounds nuw i8, ptr %0, i64 32
  %3 = load i64, ptr %2, align 8
  %4 = inttoptr i64 %3 to ptr
  %5 = tail call ptr @pg_detoast_datum_packed(ptr noundef %4) #14
  %6 = getelementptr inbounds nuw i8, ptr %0, i64 48
  %7 = load i64, ptr %6, align 8
  %8 = inttoptr i64 %7 to ptr
  %9 = tail call ptr @pg_detoast_datum_packed(ptr noundef %8) #14
  %10 = load i8, ptr %5, align 1
  %11 = and i8 %10, 1
  %.not = icmp eq i8 %11, 0
  %.v = select i1 %.not, i64 4, i64 1
  %12 = getelementptr inbounds nuw i8, ptr %5, i64 %.v
  %13 = load i8, ptr %12, align 1
  %14 = load i8, ptr %9, align 1
  %15 = and i8 %14, 1
  %.not44 = icmp eq i8 %15, 0
  %.v45 = select i1 %.not44, i64 4, i64 1
  %16 = getelementptr inbounds nuw i8, ptr %9, i64 %.v45
  %17 = load i8, ptr %16, align 1
  %.not46 = icmp eq i8 %13, %17
  br i1 %.not46, label %.lr.ph.preheader, label %18

18:                                               ; preds = %1
  %19 = tail call zeroext i1 @errstart_cold(i32 noundef 21, ptr noundef null) #16
  tail call void @llvm.assume(i1 %19)
  %20 = tail call i32 @errcode(i32 noundef 50856066) #14
  %21 = tail call i32 (ptr, ...) @errmsg(ptr noundef nonnull @.str.9) #14
  tail call void @errfinish(ptr noundef nonnull @.str.1, i32 noundef 2021, ptr noundef nonnull @__func__.inetmi) #14
  unreachable

.lr.ph.preheader:                                 ; preds = %1
  %22 = getelementptr inbounds nuw i8, ptr %12, i64 2
  %23 = getelementptr inbounds nuw i8, ptr %16, i64 2
  %24 = icmp eq i8 %13, 2
  %25 = select i1 %24, i32 3, i32 15
  %26 = zext nneg i32 %25 to i64
  %27 = add nuw nsw i32 %25, 1
  %wide.trip.count = zext nneg i32 %27 to i64
  br label %.lr.ph

.lr.ph:                                           ; preds = %.lr.ph.preheader, %52
  %indvars.iv58 = phi i64 [ 0, %.lr.ph.preheader ], [ %indvars.iv.next59, %52 ]
  %indvars.iv = phi i64 [ %26, %.lr.ph.preheader ], [ %indvars.iv.next, %52 ]
  %.054 = phi i64 [ 0, %.lr.ph.preheader ], [ %.1, %52 ]
  %.03953 = phi i32 [ 1, %.lr.ph.preheader ], [ %53, %52 ]
  %28 = getelementptr inbounds nuw i8, ptr %22, i64 %indvars.iv
  %29 = load i8, ptr %28, align 1
  %30 = zext i8 %29 to i32
  %31 = getelementptr inbounds nuw i8, ptr %23, i64 %indvars.iv
  %32 = load i8, ptr %31, align 1
  %33 = xor i8 %32, -1
  %34 = zext i8 %33 to i32
  %35 = add nuw nsw i32 %.03953, %30
  %36 = add nuw nsw i32 %35, %34
  %37 = and i32 %36, 255
  %38 = icmp samesign ult i64 %indvars.iv58, 8
  br i1 %38, label %39, label %44

39:                                               ; preds = %.lr.ph
  %40 = zext nneg i32 %37 to i64
  %41 = shl nuw nsw i64 %indvars.iv58, 3
  %42 = shl nuw i64 %40, %41
  %43 = or i64 %42, %.054
  br label %52

44:                                               ; preds = %.lr.ph
  %45 = icmp slt i64 %.054, 0
  br i1 %45, label %46, label %47

46:                                               ; preds = %44
  %.not48 = icmp eq i32 %37, 255
  br i1 %.not48, label %52, label %48

47:                                               ; preds = %44
  %.not47 = icmp eq i32 %37, 0
  br i1 %.not47, label %52, label %48

48:                                               ; preds = %47, %46
  %49 = tail call zeroext i1 @errstart_cold(i32 noundef 21, ptr noundef null) #16
  tail call void @llvm.assume(i1 %49)
  %50 = tail call i32 @errcode(i32 noundef 50331778) #14
  %51 = tail call i32 (ptr, ...) @errmsg(ptr noundef nonnull @.str.10) #14
  tail call void @errfinish(ptr noundef nonnull @.str.1, i32 noundef 2056, ptr noundef nonnull @__func__.inetmi) #14
  unreachable

52:                                               ; preds = %46, %47, %39
  %.1 = phi i64 [ %43, %39 ], [ %.054, %46 ], [ %.054, %47 ]
  %53 = lshr i32 %36, 8
  %indvars.iv.next59 = add nuw nsw i64 %indvars.iv58, 1
  %indvars.iv.next = add nsw i64 %indvars.iv, -1
  %exitcond.not = icmp eq i64 %indvars.iv.next59, %wide.trip.count
  br i1 %exitcond.not, label %._crit_edge, label %.lr.ph, !llvm.loop !34

._crit_edge:                                      ; preds = %52
  %54 = icmp samesign ult i32 %36, 256
  %or.cond = and i1 %54, %24
  %55 = shl nuw nsw i32 %25, 3
  %56 = add nuw nsw i32 %55, 8
  %57 = zext nneg i32 %56 to i64
  %58 = shl nsw i64 -1, %57
  %59 = select i1 %or.cond, i64 %58, i64 0
  %.2 = or i64 %59, %.1
  ret i64 %.2
}